; Function Attrs: nounwind uwtable
define ptr @l_Lean_PersistentHashMap_insertAux_traverse___at_Lean_Compiler_LCNF_Simp_withDiscrCtorImp_updateCtx___spec__8___boxed(ptr noundef %0, ptr noundef %1, ptr noundef %2, ptr noundef readnone captures(none) %3, ptr noundef %4, ptr noundef %5) local_unnamed_addr #1 {
  %7 = getelementptr i8, ptr %0, i64 8
  %.val = load i64, ptr %7, align 8, !tbaa !13
  %8 = ptrtoint ptr %0 to i64
  %9 = and i64 %8, 1
  %.not = icmp eq i64 %9, 0
  br i1 %.not, label %10, label %lean_dec.exit11

10:                                               ; preds = %6
  %11 = load i32, ptr %0, align 4, !tbaa !4
  %12 = icmp sgt i32 %11, 1
  br i1 %12, label %13, label %15, !prof !11

13:                                               ; preds = %10
  %14 = add nsw i32 %11, -1
  store i32 %14, ptr %0, align 4, !tbaa !4
  br label %lean_dec.exit11

15:                                               ; preds = %10
  %.not.i = icmp eq i32 %11, 0
  br i1 %.not.i, label %lean_dec.exit11, label %16

16:                                               ; preds = %15
  tail call void @lean_dec_ref_cold(ptr noundef nonnull %0) #4
  br label %lean_dec.exit11

lean_dec.exit11:                                  ; preds = %16, %15, %13, %6
  %17 = tail call ptr @l_Lean_PersistentHashMap_insertAux_traverse___at_Lean_Compiler_LCNF_Simp_withDiscrCtorImp_updateCtx___spec__8(i64 noundef %.val, ptr noundef %1, ptr noundef %2, ptr poison, ptr noundef %4, ptr noundef %5)
  %18 = ptrtoint ptr %2 to i64
  %19 = and i64 %18, 1
  %.not16 = icmp eq i64 %19, 0
  br i1 %.not16, label %20, label %lean_dec.exit10

20:                                               ; preds = %lean_dec.exit11
  %21 = load i32, ptr %2, align 4, !tbaa !4
  %22 = icmp sgt i32 %21, 1
  br i1 %22, label %23, label %25, !prof !11

23:                                               ; preds = %20
  %24 = add nsw i32 %21, -1
  store i32 %24, ptr %2, align 4, !tbaa !4
  br label %lean_dec.exit10

25:                                               ; preds = %20
  %.not.i12 = icmp eq i32 %21, 0
  br i1 %.not.i12, label %lean_dec.exit10, label %26

26:                                               ; preds = %25
  tail call void @lean_dec_ref_cold(ptr noundef nonnull %2) #4
  br label %lean_dec.exit10

lean_dec.exit10:                                  ; preds = %26, %25, %23, %lean_dec.exit11
  %27 = ptrtoint ptr %1 to i64
  %28 = and i64 %27, 1
  %.not17 = icmp eq i64 %28, 0
  br i1 %.not17, label %29, label %lean_dec.exit

29:                                               ; preds = %lean_dec.exit10
  %30 = load i32, ptr %1, align 4, !tbaa !4
  %31 = icmp sgt i32 %30, 1
  br i1 %31, label %32, label %34, !prof !11

32:                                               ; preds = %29
  %33 = add nsw i32 %30, -1
  store i32 %33, ptr %1, align 4, !tbaa !4
  br label %lean_dec.exit

34:                                               ; preds = %29
  %.not.i14 = icmp eq i32 %30, 0
  br i1 %.not.i14, label %lean_dec.exit, label %35

35:                                               ; preds = %34
  tail call void @lean_dec_ref_cold(ptr noundef nonnull %1) #4
  br label %lean_dec.exit

lean_dec.exit:                                    ; preds = %35, %34, %32, %lean_dec.exit10
  ret ptr %17
}